target datalayout = "e-m:e-p270:32:32-p271:32:32-p272:64:64-i64:64-i128:128-f80:128-n8:16:32:64-S128"
target triple = "x86_64-pc-linux-gnu"

%struct.slice_buffer_s = type { ptr, ptr, i32, i32, i32, i32, ptr }

; Function Attrs: nounwind uwtable
define void @ff_slice_buffer_release(ptr noundef %0, i32 noundef %1) #0 {
  %3 = alloca ptr, align 8
  %4 = alloca i32, align 4
  %5 = alloca ptr, align 8
  store ptr %0, ptr %3, align 8, !tbaa !4
  store i32 %1, ptr %4, align 4, !tbaa !9
  call void @llvm.lifetime.start.p0(i64 8, ptr %5) #8
  %6 = load ptr, ptr %3, align 8, !tbaa !4
  %7 = getelementptr inbounds nuw %struct.slice_buffer_s, ptr %6, i32 0, i32 0
  %8 = load ptr, ptr %7, align 8, !tbaa !20
  %9 = load i32, ptr %4, align 4, !tbaa !9
  %10 = sext i32 %9 to i64
  %11 = getelementptr inbounds ptr, ptr %8, i64 %10
  %12 = load ptr, ptr %11, align 8, !tbaa !11
  store ptr %12, ptr %5, align 8, !tbaa !11
  %13 = load ptr, ptr %3, align 8, !tbaa !4
  %14 = getelementptr inbounds nuw %struct.slice_buffer_s, ptr %13, i32 0, i32 2
  %15 = load i32, ptr %14, align 8, !tbaa !25
  %16 = add nsw i32 %15, 1
  store i32 %16, ptr %14, align 8, !tbaa !25
  %17 = load ptr, ptr %5, align 8, !tbaa !11
  %18 = load ptr, ptr %3, align 8, !tbaa !4
  %19 = getelementptr inbounds nuw %struct.slice_buffer_s, ptr %18, i32 0, i32 1
  %20 = load ptr, ptr %19, align 8, !tbaa !21
  %21 = load ptr, ptr %3, align 8, !tbaa !4
  %22 = getelementptr inbounds nuw %struct.slice_buffer_s, ptr %21, i32 0, i32 2
  %23 = load i32, ptr %22, align 8, !tbaa !25
  %24 = sext i32 %23 to i64
  %25 = getelementptr inbounds ptr, ptr %20, i64 %24
  store ptr %17, ptr %25, align 8, !tbaa !11
  %26 = load ptr, ptr %3, align 8, !tbaa !4
  %27 = getelementptr inbounds nuw %struct.slice_buffer_s, ptr %26, i32 0, i32 0
  %28 = load ptr, ptr %27, align 8, !tbaa !20
  %29 = load i32, ptr %4, align 4, !tbaa !9
  %30 = sext i32 %29 to i64
  %31 = getelementptr inbounds ptr, ptr %28, i64 %30
  store ptr null, ptr %31, align 8, !tbaa !11
  call void @llvm.lifetime.end.p0(i64 8, ptr %5) #8
  ret void
}

; Function Attrs: nounwind uwtable
define void @ff_slice_buffer_flush(ptr noundef %0) #0 {
  %2 = alloca ptr, align 8
  %3 = alloca i32, align 4
  %4 = alloca i32, align 4
  store ptr %0, ptr %2, align 8, !tbaa !4
  call void @llvm.lifetime.start.p0(i64 4, ptr %3) #8
  %5 = load ptr, ptr %2, align 8, !tbaa !4
  %6 = getelementptr inbounds nuw %struct.slice_buffer_s, ptr %5, i32 0, i32 0
  %7 = load ptr, ptr %6, align 8, !tbaa !20
  %8 = icmp ne ptr %7, null
  br i1 %8, label %10, label %9

9:                                                ; preds = %1
  store i32 1, ptr %4, align 4
  br label %34

10:                                               ; preds = %1
  store i32 0, ptr %3, align 4, !tbaa !9
  br label %11

11:                                               ; preds = %30, %10
  %12 = load i32, ptr %3, align 4, !tbaa !9
  %13 = load ptr, ptr %2, align 8, !tbaa !4
  %14 = getelementptr inbounds nuw %struct.slice_buffer_s, ptr %13, i32 0, i32 3
  %15 = load i32, ptr %14, align 4, !tbaa !17
  %16 = icmp slt i32 %12, %15
  br i1 %16, label %17, label %33

17:                                               ; preds = %11
  %18 = load ptr, ptr %2, align 8, !tbaa !4
  %19 = getelementptr inbounds nuw %struct.slice_buffer_s, ptr %18, i32 0, i32 0
  %20 = load ptr, ptr %19, align 8, !tbaa !20
  %21 = load i32, ptr %3, align 4, !tbaa !9
  %22 = sext i32 %21 to i64
  %23 = getelementptr inbounds ptr, ptr %20, i64 %22
  %24 = load ptr, ptr %23, align 8, !tbaa !11
  %25 = icmp ne ptr %24, null
  br i1 %25, label %26, label %29

26:                                               ; preds = %17
  %27 = load ptr, ptr %2, align 8, !tbaa !4
  %28 = load i32, ptr %3, align 4, !tbaa !9
  call void @ff_slice_buffer_release(ptr noundef %27, i32 noundef %28)
  br label %29

29:                                               ; preds = %26, %17
  br label %30

30:                                               ; preds = %29
  %31 = load i32, ptr %3, align 4, !tbaa !9
  %32 = add nsw i32 %31, 1
  store i32 %32, ptr %3, align 4, !tbaa !9
  br label %11, !llvm.loop !26

33:                                               ; preds = %11
  store i32 0, ptr %4, align 4
  br label %34

34:                                               ; preds = %33, %9
  call void @llvm.lifetime.end.p0(i64 4, ptr %3) #8
  %35 = load i32, ptr %4, align 4
  switch i32 %35, label %37 [
    i32 0, label %36
    i32 1, label %36
  ]

36:                                               ; preds = %34, %34
  ret void

37:                                               ; preds = %34
  unreachable
}

; Function Attrs: nounwind uwtable
define void @ff_slice_buffer_destroy(ptr noundef %0) #0 {
  %2 = alloca ptr, align 8
  %3 = alloca i32, align 4
  store ptr %0, ptr %2, align 8, !tbaa !4
  call void @llvm.lifetime.start.p0(i64 4, ptr %3) #8
  %4 = load ptr, ptr %2, align 8, !tbaa !4
  call void @ff_slice_buffer_flush(ptr noundef %4)
  %5 = load ptr, ptr %2, align 8, !tbaa !4
  %6 = getelementptr inbounds nuw %struct.slice_buffer_s, ptr %5, i32 0, i32 1
  %7 = load ptr, ptr %6, align 8, !tbaa !21
  %8 = icmp ne ptr %7, null
  br i1 %8, label %9, label %28

9:                                                ; preds = %1
  %10 = load ptr, ptr %2, align 8, !tbaa !4
  %11 = getelementptr inbounds nuw %struct.slice_buffer_s, ptr %10, i32 0, i32 5
  %12 = load i32, ptr %11, align 4, !tbaa !19
  %13 = sub nsw i32 %12, 1
  store i32 %13, ptr %3, align 4, !tbaa !9
  br label %14

14:                                               ; preds = %24, %9
  %15 = load i32, ptr %3, align 4, !tbaa !9
  %16 = icmp sge i32 %15, 0
  br i1 %16, label %17, label %27

17:                                               ; preds = %14
  %18 = load ptr, ptr %2, align 8, !tbaa !4
  %19 = getelementptr inbounds nuw %struct.slice_buffer_s, ptr %18, i32 0, i32 1
  %20 = load ptr, ptr %19, align 8, !tbaa !21
  %21 = load i32, ptr %3, align 4, !tbaa !9
  %22 = sext i32 %21 to i64
  %23 = getelementptr inbounds ptr, ptr %20, i64 %22
  call void @av_freep(ptr noundef %23)
  br label %24

24:                                               ; preds = %17
  %25 = load i32, ptr %3, align 4, !tbaa !9
  %26 = add nsw i32 %25, -1
  store i32 %26, ptr %3, align 4, !tbaa !9
  br label %14, !llvm.loop !27

27:                                               ; preds = %14
  br label %28

28:                                               ; preds = %27, %1
  %29 = load ptr, ptr %2, align 8, !tbaa !4
  %30 = getelementptr inbounds nuw %struct.slice_buffer_s, ptr %29, i32 0, i32 1
  call void @av_freep(ptr noundef %30)
  %31 = load ptr, ptr %2, align 8, !tbaa !4
  %32 = getelementptr inbounds nuw %struct.slice_buffer_s, ptr %31, i32 0, i32 0
  call void @av_freep(ptr noundef %32)
  call void @llvm.lifetime.end.p0(i64 4, ptr %3) #8
  ret void
}