; Function Attrs: nounwind uwtable
define void @ff_slice_buffer_destroy(ptr noundef %0) local_unnamed_addr #0 {
  %2 = load ptr, ptr %0, align 8, !tbaa !16
  %.not.i = icmp eq ptr %2, null
  br i1 %.not.i, label %ff_slice_buffer_flush.exit, label %.preheader.i

.preheader.i:                                     ; preds = %1
  %3 = getelementptr inbounds nuw i8, ptr %0, i64 20
  %4 = load i32, ptr %3, align 4, !tbaa !13
  %5 = icmp sgt i32 %4, 0
  br i1 %5, label %.lr.ph.i, label %ff_slice_buffer_flush.exit

.lr.ph.i:                                         ; preds = %.preheader.i
  %6 = getelementptr inbounds nuw i8, ptr %0, i64 16
  %7 = getelementptr inbounds nuw i8, ptr %0, i64 8
  %wide.trip.count.i = zext nneg i32 %4 to i64
  br label %8

8:                                                ; preds = %17, %.lr.ph.i
  %indvars.iv.i = phi i64 [ 0, %.lr.ph.i ], [ %indvars.iv.next.i, %17 ]
  %9 = getelementptr inbounds nuw ptr, ptr %2, i64 %indvars.iv.i
  %10 = load ptr, ptr %9, align 8, !tbaa !18
  %.not7.i = icmp eq ptr %10, null
  br i1 %.not7.i, label %17, label %11

11:                                               ; preds = %8
  %12 = load i32, ptr %6, align 8, !tbaa !22
  %13 = add nsw i32 %12, 1
  store i32 %13, ptr %6, align 8, !tbaa !22
  %14 = load ptr, ptr %7, align 8, !tbaa !17
  %15 = sext i32 %13 to i64
  %16 = getelementptr inbounds ptr, ptr %14, i64 %15
  store ptr %10, ptr %16, align 8, !tbaa !18
  store ptr null, ptr %9, align 8, !tbaa !18
  br label %17

17:                                               ; preds = %11, %8
  %indvars.iv.next.i = add nuw nsw i64 %indvars.iv.i, 1
  %exitcond.not.i = icmp eq i64 %indvars.iv.next.i, %wide.trip.count.i
  br i1 %exitcond.not.i, label %ff_slice_buffer_flush.exit, label %8, !llvm.loop !23

ff_slice_buffer_flush.exit:                       ; preds = %17, %1, %.preheader.i
  %18 = getelementptr inbounds nuw i8, ptr %0, i64 8
  %19 = load ptr, ptr %18, align 8, !tbaa !17
  %.not = icmp eq ptr %19, null
  br i1 %.not, label %.loopexit, label %20

20:                                               ; preds = %ff_slice_buffer_flush.exit
  %21 = getelementptr inbounds nuw i8, ptr %0, i64 28
  %22 = load i32, ptr %21, align 4, !tbaa !15
  %23 = icmp sgt i32 %22, 0
  br i1 %23, label %.lr.ph.preheader, label %.loopexit

.lr.ph.preheader:                                 ; preds = %20
  %24 = zext nneg i32 %22 to i64
  br label %.lr.ph

.lr.ph:                                           ; preds = %.lr.ph.preheader, %.lr.ph
  %indvars.iv = phi i64 [ %24, %.lr.ph.preheader ], [ %indvars.iv.next, %.lr.ph ]
  %indvars.iv.next = add nsw i64 %indvars.iv, -1
  %25 = load ptr, ptr %18, align 8, !tbaa !17
  %26 = getelementptr inbounds nuw ptr, ptr %25, i64 %indvars.iv.next
  tail call void @av_freep(ptr noundef %26) #12
  %27 = icmp samesign ugt i64 %indvars.iv, 1
  br i1 %27, label %.lr.ph, label %.loopexit, !llvm.loop !24

.loopexit:                                        ; preds = %.lr.ph, %20, %ff_slice_buffer_flush.exit
  tail call void @av_freep(ptr noundef nonnull %18) #12
  tail call void @av_freep(ptr noundef nonnull %0) #12
  ret void
}